; ModuleID = '20/362.c'
source_filename = "20/362.c"
target datalayout = "e-m:e-p270:32:32-p271:32:32-p272:64:64-i64:64-f80:128-n8:16:32:64-S128"
target triple = "x86_64-pc-linux-gnu"

@.str = private unnamed_addr constant [6 x i8] c"%s %s\00", align 1
@.str.1 = private unnamed_addr constant [3 x i8] c"%c\00", align 1
@.str.2 = private unnamed_addr constant [3 x i8] c"%s\00", align 1
@.str.3 = private unnamed_addr constant [2 x i8] c"\0A\00", align 1

; Function Attrs: noinline nounwind uwtable
define dso_local i32 @main() #0 {
  %1 = alloca i32, align 4
  %2 = alloca [11 x i8], align 1
  %3 = alloca [4 x i8], align 1
  %4 = alloca i8*, align 8
  %5 = alloca i8*, align 8
  %6 = alloca i32, align 4
  %7 = alloca i32, align 4
  %8 = alloca i32, align 4
  %9 = alloca i32, align 4
  store i32 0, i32* %1, align 4
  br label %10

10:                                               ; preds = %83, %0
  %11 = getelementptr inbounds [11 x i8], [11 x i8]* %2, i64 0, i64 0
  %12 = getelementptr inbounds [4 x i8], [4 x i8]* %3, i64 0, i64 0
  %13 = call i32 (i8*, ...) @__isoc99_scanf(i8* getelementptr inbounds ([6 x i8], [6 x i8]* @.str, i64 0, i64 0), i8* %11, i8* %12)
  %14 = icmp ne i32 %13, -1
  br i1 %14, label %15, label %85

15:                                               ; preds = %10
  store i32 0, i32* %6, align 4
  %16 = getelementptr inbounds [11 x i8], [11 x i8]* %2, i64 0, i64 0
  store i8* %16, i8** %4, align 8
  %17 = getelementptr inbounds [4 x i8], [4 x i8]* %3, i64 0, i64 0
  store i8* %17, i8** %5, align 8
  %18 = getelementptr inbounds [11 x i8], [11 x i8]* %2, i64 0, i64 0
  %19 = call i64 @strlen(i8* %18) #3
  %20 = trunc i64 %19 to i32
  store i32 %20, i32* %9, align 4
  %21 = load i32, i32* %9, align 4
  %22 = sub nsw i32 %21, 1
  store i32 %22, i32* %7, align 4
  br label %23

23:                                               ; preds = %44, %15
  %24 = load i32, i32* %7, align 4
  %25 = icmp sge i32 %24, 0
  br i1 %25, label %26, label %47

26:                                               ; preds = %23
  %27 = load i8*, i8** %4, align 8
  %28 = load i32, i32* %7, align 4
  %29 = sext i32 %28 to i64
  %30 = getelementptr inbounds i8, i8* %27, i64 %29
  %31 = load i8, i8* %30, align 1
  %32 = sext i8 %31 to i32
  %33 = load i32, i32* %6, align 4
  %34 = icmp sge i32 %32, %33
  br i1 %34, label %35, label %43

35:                                               ; preds = %26
  %36 = load i32, i32* %7, align 4
  store i32 %36, i32* %8, align 4
  %37 = load i8*, i8** %4, align 8
  %38 = load i32, i32* %7, align 4
  %39 = sext i32 %38 to i64
  %40 = getelementptr inbounds i8, i8* %37, i64 %39
  %41 = load i8, i8* %40, align 1
  %42 = sext i8 %41 to i32
  store i32 %42, i32* %6, align 4
  br label %43

43:                                               ; preds = %35, %26
  br label %44

44:                                               ; preds = %43
  %45 = load i32, i32* %7, align 4
  %46 = add nsw i32 %45, -1
  store i32 %46, i32* %7, align 4
  br label %23

47:                                               ; preds = %23
  store i32 0, i32* %7, align 4
  br label %48

48:                                               ; preds = %60, %47
  %49 = load i32, i32* %7, align 4
  %50 = load i32, i32* %8, align 4
  %51 = icmp sle i32 %49, %50
  br i1 %51, label %52, label %63

52:                                               ; preds = %48
  %53 = load i8*, i8** %4, align 8
  %54 = load i32, i32* %7, align 4
  %55 = sext i32 %54 to i64
  %56 = getelementptr inbounds i8, i8* %53, i64 %55
  %57 = load i8, i8* %56, align 1
  %58 = sext i8 %57 to i32
  %59 = call i32 (i8*, ...) @printf(i8* getelementptr inbounds ([3 x i8], [3 x i8]* @.str.1, i64 0, i64 0), i32 %58)
  br label %60

60:                                               ; preds = %52
  %61 = load i32, i32* %7, align 4
  %62 = add nsw i32 %61, 1
  store i32 %62, i32* %7, align 4
  br label %48

63:                                               ; preds = %48
  %64 = load i8*, i8** %5, align 8
  %65 = call i32 (i8*, ...) @printf(i8* getelementptr inbounds ([3 x i8], [3 x i8]* @.str.2, i64 0, i64 0), i8* %64)
  %66 = load i32, i32* %8, align 4
  %67 = add nsw i32 %66, 1
  store i32 %67, i32* %7, align 4
  br label %68

68:                                               ; preds = %80, %63
  %69 = load i32, i32* %7, align 4
  %70 = load i32, i32* %9, align 4
  %71 = icmp slt i32 %69, %70
  br i1 %71, label %72, label %83

72:                                               ; preds = %68
  %73 = load i8*, i8** %4, align 8
  %74 = load i32, i32* %7, align 4
  %75 = sext i32 %74 to i64
  %76 = getelementptr inbounds i8, i8* %73, i64 %75
  %77 = load i8, i8* %76, align 1
  %78 = sext i8 %77 to i32
  %79 = call i32 (i8*, ...) @printf(i8* getelementptr inbounds ([3 x i8], [3 x i8]* @.str.1, i64 0, i64 0), i32 %78)
  br label %80

80:                                               ; preds = %72
  %81 = load i32, i32* %7, align 4
  %82 = add nsw i32 %81, 1
  store i32 %82, i32* %7, align 4
  br label %68

83:                                               ; preds = %68
  %84 = call i32 (i8*, ...) @printf(i8* getelementptr inbounds ([2 x i8], [2 x i8]* @.str.3, i64 0, i64 0))
  br label %10

85:                                               ; preds = %10
  %86 = load i32, i32* %1, align 4
  ret i32 %86
}

declare dso_local i32 @__isoc99_scanf(i8*, ...) #1

; Function Attrs: nounwind readonly
declare dso_local i64 @strlen(i8*) #2

declare dso_local i32 @printf(i8*, ...) #1


!llvm.module.flags = !{!0}
!llvm.ident = !{!1}

!0 = !{i32 1, !"wchar_size", i32 4}
!1 = !{!"clang version 10.0.0-4ubuntu1 "}
